; Function Attrs: nounwind uwtable
define hidden void @ERR_add_error_dataf(ptr noundef %0, ...) local_unnamed_addr #0 {
  %2 = alloca [1 x %struct.__va_list_tag], align 16
  call void @llvm.lifetime.start.p0(i64 24, ptr nonnull %2) #17
  %3 = tail call noalias dereferenceable_or_null(257) ptr @malloc(i64 noundef 257) #20
  %4 = icmp eq ptr %3, null
  br i1 %4, label %err_set_error_data.exit, label %5

5:                                                ; preds = %1
  call void @llvm.va_start.p0(ptr nonnull %2)
  %6 = call i32 @BIO_vsnprintf(ptr noundef nonnull %3, i64 noundef 256, ptr noundef %0, ptr noundef nonnull %2) #17
  %7 = getelementptr inbounds nuw i8, ptr %3, i64 256
  store i8 0, ptr %7, align 1, !tbaa !31
  call void @llvm.va_end.p0(ptr nonnull %2)
  %8 = call ptr @CRYPTO_get_thread_local(i32 noundef 0) #17
  %9 = icmp eq ptr %8, null
  br i1 %9, label %10, label %err_get_state.exit.i

10:                                               ; preds = %5
  %calloc.i.i = call dereferenceable_or_null(400) ptr @calloc(i64 1, i64 400)
  %11 = icmp eq ptr %calloc.i.i, null
  br i1 %11, label %err_get_state.exit.thread.i, label %12

12:                                               ; preds = %10
  %13 = call i32 @CRYPTO_set_thread_local(i32 noundef 0, ptr noundef nonnull %calloc.i.i, ptr noundef nonnull @err_state_free) #17
  %.not.i.i = icmp eq i32 %13, 0
  br i1 %.not.i.i, label %err_get_state.exit.thread.i, label %err_get_state.exit.i

err_get_state.exit.i:                             ; preds = %12, %5
  %.06.i.i = phi ptr [ %8, %5 ], [ %calloc.i.i, %12 ]
  %14 = getelementptr inbounds nuw i8, ptr %.06.i.i, i64 384
  %15 = load i32, ptr %14, align 8, !tbaa !12
  %16 = getelementptr inbounds nuw i8, ptr %.06.i.i, i64 388
  %17 = load i32, ptr %16, align 4, !tbaa !6
  %18 = icmp eq i32 %15, %17
  br i1 %18, label %err_get_state.exit.thread.i, label %19

err_get_state.exit.thread.i:                      ; preds = %err_get_state.exit.i, %12, %10
  call void @free(ptr noundef nonnull %3) #17
  br label %err_set_error_data.exit

19:                                               ; preds = %err_get_state.exit.i
  %20 = zext i32 %15 to i64
  %21 = getelementptr inbounds nuw [16 x %struct.err_error_st], ptr %.06.i.i, i64 0, i64 %20
  %22 = getelementptr inbounds nuw i8, ptr %21, i64 22
  %23 = load i8, ptr %22, align 2, !tbaa !17
  %24 = and i8 %23, 16
  %.not.i12.i = icmp eq i8 %24, 0
  br i1 %.not.i12.i, label %err_clear_data.exit.i, label %25

25:                                               ; preds = %19
  %26 = getelementptr inbounds nuw i8, ptr %21, i64 8
  %27 = load ptr, ptr %26, align 8, !tbaa !18
  call void @free(ptr noundef %27) #17
  br label %err_clear_data.exit.i

err_clear_data.exit.i:                            ; preds = %25, %19
  %28 = getelementptr inbounds nuw i8, ptr %21, i64 8
  store ptr %3, ptr %28, align 8, !tbaa !18
  store i8 17, ptr %22, align 2, !tbaa !17
  br label %err_set_error_data.exit

err_set_error_data.exit:                          ; preds = %err_clear_data.exit.i, %err_get_state.exit.thread.i, %1
  call void @llvm.lifetime.end.p0(i64 24, ptr nonnull %2) #17
  ret void
}